; Function Attrs: mustprogress uwtable
define internal void @_ZL16cq_init_callbackPvP29grpc_completion_queue_functor(ptr noundef initializes((0, 9), (16, 24)) %0, ptr noundef %1) #8 {
  store i64 1, ptr %0, align 8, !tbaa !83
  %3 = getelementptr inbounds nuw i8, ptr %0, i64 8
  store i8 0, ptr %3, align 8, !tbaa !169
  %4 = getelementptr inbounds nuw i8, ptr %0, i64 16
  store ptr %1, ptr %4, align 8, !tbaa !177
  %5 = getelementptr inbounds nuw i8, ptr %0, i64 24
  tail call void @_ZN17grpc_event_engine12experimental21GetDefaultEventEngineEv(ptr dead_on_unwind nonnull writable sret(%"class.std::shared_ptr") align 8 %5)
  ret void
}